target datalayout = "e-m:e-p270:32:32-p271:32:32-p272:64:64-i64:64-i128:128-f80:128-n8:16:32:64-S128"
target triple = "x86_64-pc-linux-gnu"

%struct.LZ4F_decompressOptions_t = type { i32, i32, i32, i32 }

@g_skipChecksums = dso_local global i32 0, align 4
@g_dctx = internal global ptr null, align 8
@__const.LZ4F_decompress_binding.dOpt = private unnamed_addr constant %struct.LZ4F_decompressOptions_t { i32 1, i32 0, i32 0, i32 0 }, align 4

; Function Attrs: nounwind uwtable
define internal i32 @LZ4F_decompress_binding(ptr noundef %0, ptr noundef %1, i32 noundef %2, i32 noundef %3, ptr noundef %4, i32 noundef %5) #0 {
  %7 = alloca i32, align 4
  %8 = alloca ptr, align 8
  %9 = alloca ptr, align 8
  %10 = alloca i32, align 4
  %11 = alloca i32, align 4
  %12 = alloca ptr, align 8
  %13 = alloca i32, align 4
  %14 = alloca i64, align 8
  %15 = alloca i64, align 8
  %16 = alloca %struct.LZ4F_decompressOptions_t, align 4
  %17 = alloca i64, align 8
  %18 = alloca i32, align 4
  store ptr %0, ptr %8, align 8, !tbaa !15
  store ptr %1, ptr %9, align 8, !tbaa !15
  store i32 %2, ptr %10, align 4, !tbaa !4
  store i32 %3, ptr %11, align 4, !tbaa !4
  store ptr %4, ptr %12, align 8, !tbaa !15
  store i32 %5, ptr %13, align 4, !tbaa !4
  call void @llvm.lifetime.start.p0(i64 8, ptr %14) #9
  %19 = load i32, ptr %11, align 4, !tbaa !4
  %20 = sext i32 %19 to i64
  store i64 %20, ptr %14, align 8, !tbaa !11
  call void @llvm.lifetime.start.p0(i64 8, ptr %15) #9
  %21 = load i32, ptr %10, align 4, !tbaa !4
  %22 = sext i32 %21 to i64
  store i64 %22, ptr %15, align 8, !tbaa !11
  call void @llvm.lifetime.start.p0(i64 16, ptr %16) #9
  call void @llvm.memcpy.p0.p0.i64(ptr align 4 %16, ptr align 4 @__const.LZ4F_decompress_binding.dOpt, i64 16, i1 false)
  call void @llvm.lifetime.start.p0(i64 8, ptr %17) #9
  %23 = load i32, ptr @g_skipChecksums, align 4, !tbaa !4
  %24 = getelementptr inbounds nuw %struct.LZ4F_decompressOptions_t, ptr %16, i32 0, i32 1
  store i32 %23, ptr %24, align 4, !tbaa !70
  %25 = load ptr, ptr @g_dctx, align 8, !tbaa !31
  %26 = load ptr, ptr %9, align 8, !tbaa !15
  %27 = load ptr, ptr %8, align 8, !tbaa !15
  %28 = call i64 @LZ4F_decompress(ptr noundef %25, ptr noundef %26, ptr noundef %14, ptr noundef %27, ptr noundef %15, ptr noundef %16)
  store i64 %28, ptr %17, align 8, !tbaa !11
  %29 = load i64, ptr %17, align 8, !tbaa !11
  %30 = icmp eq i64 %29, 0
  br i1 %30, label %31, label %39

31:                                               ; preds = %6
  %32 = load i64, ptr %15, align 8, !tbaa !11
  %33 = trunc i64 %32 to i32
  %34 = load i32, ptr %10, align 4, !tbaa !4
  %35 = icmp eq i32 %33, %34
  br i1 %35, label %36, label %39

36:                                               ; preds = %31
  %37 = load i64, ptr %14, align 8, !tbaa !11
  %38 = trunc i64 %37 to i32
  store i32 %38, ptr %7, align 4
  store i32 1, ptr %18, align 4
  br label %40

39:                                               ; preds = %31, %6
  store i32 -1, ptr %7, align 4
  store i32 1, ptr %18, align 4
  br label %40

40:                                               ; preds = %39, %36
  call void @llvm.lifetime.end.p0(i64 8, ptr %17) #9
  call void @llvm.lifetime.end.p0(i64 16, ptr %16) #9
  call void @llvm.lifetime.end.p0(i64 8, ptr %15) #9
  call void @llvm.lifetime.end.p0(i64 8, ptr %14) #9
  %41 = load i32, ptr %7, align 4
  ret i32 %41
}