; Function Attrs: nounwind uwtable
define internal i32 @LZ4F_decompress_binding(ptr noundef %0, ptr noundef %1, i32 noundef %2, i32 noundef %3, ptr readnone captures(none) %4, i32 %5) unnamed_addr #3 {
  %7 = alloca i64, align 8
  %8 = alloca i64, align 8
  %9 = alloca %struct.LZ4F_decompressOptions_t, align 4
  call void @llvm.lifetime.start.p0(i64 8, ptr nonnull %7) #19
  %10 = sext i32 %3 to i64
  store i64 %10, ptr %7, align 8, !tbaa !11
  call void @llvm.lifetime.start.p0(i64 8, ptr nonnull %8) #19
  %11 = sext i32 %2 to i64
  store i64 %11, ptr %8, align 8, !tbaa !11
  call void @llvm.lifetime.start.p0(i64 16, ptr nonnull %9) #19
  call void @llvm.memcpy.p0.p0.i64(ptr noundef nonnull align 4 dereferenceable(16) %9, ptr noundef nonnull align 4 dereferenceable(16) @__const.LZ4F_decompress_binding.dOpt, i64 16, i1 false)
  %12 = load i32, ptr @g_skipChecksums, align 4, !tbaa !4
  %13 = getelementptr inbounds nuw i8, ptr %9, i64 4
  store i32 %12, ptr %13, align 4, !tbaa !61
  %14 = load ptr, ptr @g_dctx, align 8, !tbaa !33
  %15 = call i64 @LZ4F_decompress(ptr noundef %14, ptr noundef %1, ptr noundef nonnull %7, ptr noundef %0, ptr noundef nonnull %8, ptr noundef nonnull %9) #19
  %16 = icmp eq i64 %15, 0
  %17 = load i64, ptr %8, align 8
  %18 = trunc i64 %17 to i32
  %19 = icmp eq i32 %2, %18
  %or.cond = select i1 %16, i1 %19, i1 false
  %20 = load i64, ptr %7, align 8
  %21 = trunc i64 %20 to i32
  %.0 = select i1 %or.cond, i32 %21, i32 -1
  call void @llvm.lifetime.end.p0(i64 16, ptr nonnull %9) #19
  call void @llvm.lifetime.end.p0(i64 8, ptr nonnull %8) #19
  call void @llvm.lifetime.end.p0(i64 8, ptr nonnull %7) #19
  ret i32 %.0
}